Certificate:
    Data:
        Version: 3 (0x2)
        Serial Number: 2 (0x2)
        Signature Algorithm: sha256WithRSAEncryption
        Issuer: O=Test Org, CN=Test Org rauc CA Development
        Validity
            Not Before: Jan  1 00:00:00 1970 GMT
            Not After : Dec 31 23:59:59 9999 GMT
        Subject: O=Test Org, CN=Test Org Development-1
        Subject Public Key Info:
            Public Key Algorithm: rsaEncryption
                RSA Public-Key: (2048 bit)
                Modulus:
                    00:eb:e6:a0:2a:e1:85:8c:b2:1f:54:b3:5b:62:1b:
                    f0:db:0e:54:81:90:05:ba:32:5f:bf:fd:b6:f2:72:
                    75:b9:11:92:8d:8e:b4:47:18:f1:d3:18:45:64:e7:
                    44:1c:84:0e:82:c5:a5:68:7b:87:ce:1d:1f:71:7e:
                    d1:fc:4e:4a:97:4f:26:86:9e:07:66:fa:b5:ad:e4:
                    75:d7:08:cd:5a:55:5b:34:7d:ea:d2:d4:71:63:ff:
                    4e:40:ba:c9:66:25:0f:67:5b:a0:eb:1a:5e:19:07:
                    d0:01:25:20:f5:e8:6e:16:6c:26:63:d2:0c:1c:0c:
                    ab:8b:fa:31:6e:e4:24:51:9d:71:79:9f:04:93:51:
                    4e:0f:f8:b9:11:89:f8:2d:69:5a:63:5c:b6:bb:ff:
                    d0:b4:18:f0:03:f0:68:14:af:39:63:ee:f9:fe:f3:
                    97:52:a6:29:3f:55:40:7e:d5:92:6b:0f:72:ba:10:
                    57:8e:56:70:19:03:9f:03:47:65:10:23:1b:41:a2:
                    d2:ff:81:0b:cb:a3:21:c0:97:2a:a1:0b:ef:36:df:
                    99:ea:57:a5:5f:4a:4b:f9:46:a9:1f:fe:6e:0d:c0:
                    12:f7:d9:4e:99:17:e3:57:b4:f4:37:8b:ec:f7:f2:
                    9f:44:70:cb:23:39:db:4f:08:d5:36:2c:70:d4:f7:
                    94:0b
                Exponent: 65537 (0x10001)
        X509v3 extensions:
            X509v3 Subject Key Identifier: 
                47:AB:8F:6B:14:5E:83:38:FB:F7:0E:19:19:F0:12:00:07:4F:98:EB
            X509v3 Authority Key Identifier: 
                keyid:5C:6E:96:5C:5C:97:95:D5:FB:55:9F:2F:23:68:D0:1A:3D:DE:76:E8
                DirName:/O=Test Org/CN=Test Org rauc CA Development
                serial:01

            X509v3 Basic Constraints: 
                CA:FALSE
    Signature Algorithm: sha256WithRSAEncryption
         79:1f:54:bc:7a:6c:c5:e0:16:73:81:ff:e7:72:bd:44:aa:d7:
         f1:d7:2c:fd:f1:af:ed:1d:fa:c1:e3:3f:d6:ad:0f:dc:9c:e3:
         57:b3:dd:59:cb:57:cb:1d:57:9a:e9:76:e4:31:73:58:18:de:
         8b:ea:37:a4:e0:09:0d:99:6c:20:9a:4a:69:35:16:a2:e1:05:
         07:c0:9a:a7:04:97:70:73:e3:1a:3d:cf:fb:28:e5:ba:85:58:
         e9:2d:98:91:6f:80:30:a1:44:dd:92:8c:19:9a:b4:0f:36:4a:
         1b:c6:5b:3c:ca:18:f8:2b:24:c9:f3:a9:5f:8d:da:f3:ab:36:
         0f:31:41:27:7f:ea:9c:8d:93:f3:e0:85:16:e2:fc:46:de:78:
         aa:12:fe:22:46:b6:c0:ab:8f:fd:c3:8a:44:66:ba:7e:b4:33:
         5a:a9:39:6a:79:c0:77:cc:21:0a:bf:37:4c:aa:61:bd:d4:f4:
         be:03:bf:70:b9:ee:34:a6:83:40:0d:0b:dd:f3:05:d8:af:35:
         5b:bb:d9:39:ab:be:30:36:4a:60:3d:d7:a2:68:d9:df:ff:9c:
         b6:91:36:71:3e:63:4a:f8:f2:bc:09:04:40:04:30:c2:b0:c7:
         7c:66:6a:f1:43:57:73:84:61:88:d6:fd:39:cf:c4:48:60:35:
         af:3d:1b:0a
-----BEGIN CERTIFICATE-----
MIIDfTCCAmWgAwIBAgIBAjANBgkqhkiG9w0BAQsFADA6MREwDwYDVQQKDAhUZXN0
IE9yZzElMCMGA1UEAwwcVGVzdCBPcmcgcmF1YyBDQSBEZXZlbG9wbWVudDAgFw03
MDAxMDEwMDAwMDBaGA85OTk5MTIzMTIzNTk1OVowNDERMA8GA1UECgwIVGVzdCBP
cmcxHzAdBgNVBAMMFlRlc3QgT3JnIERldmVsb3BtZW50LTEwggEiMA0GCSqGSIb3
DQEBAQUAA4IBDwAwggEKAoIBAQDr5qAq4YWMsh9Us1tiG/DbDlSBkAW6Ml+//bby
cnW5EZKNjrRHGPHTGEVk50QchA6CxaVoe4fOHR9xftH8TkqXTyaGngdm+rWt5HXX
CM1aVVs0ferS1HFj/05AuslmJQ9nW6DrGl4ZB9ABJSD16G4WbCZj0gwcDKuL+jFu
5CRRnXF5nwSTUU4P+LkRifgtaVpjXLa7/9C0GPAD8GgUrzlj7vn+85dSpik/VUB+
1ZJrD3K6EFeOVnAZA58DR2UQIxtBotL/gQvLoyHAlyqhC+8235nqV6VfSkv5Rqkf
/m4NwBL32U6ZF+NXtPQ3i+z38p9EcMsjOdtPCNU2LHDU95QLAgMBAAGjgZEwgY4w
HQYDVR0OBBYEFEerj2sUXoM4+/cOGRnwEgAHT5jrMGIGA1UdIwRbMFmAFFxullxc
l5XV+1WfLyNo0Bo93nbooT6kPDA6MREwDwYDVQQKDAhUZXN0IE9yZzElMCMGA1UE
AwwcVGVzdCBPcmcgcmF1YyBDQSBEZXZlbG9wbWVudIIBATAJBgNVHRMEAjAAMA0G
CSqGSIb3DQEBCwUAA4IBAQB5H1S8emzF4BZzgf/ncr1Eqtfx1yz98a/tHfrB4z/W
rQ/cnONXs91Zy1fLHVea6XbkMXNYGN6L6jek4AkNmWwgmkppNRai4QUHwJqnBJdw
c+MaPc/7KOW6hVjpLZiRb4AwoUTdkowZmrQPNkobxls8yhj4KyTJ86lfjdrzqzYP
MUEnf+qcjZPz4IUW4vxG3niqEv4iRrbAq4/9w4pEZrp+tDNaqTlqecB3zCEKvzdM
qmG91PS+A79wue40poNADQvd8wXYrzVbu9k5q74wNkpgPdeiaNnf/5y2kTZxPmNK
+PK8CQRABDDCsMd8ZmrxQ1dzhGGI1v05z8RIYDWvPRsK
-----END CERTIFICATE-----
