Certificate:
    Data:
        Version: 3 (0x2)
        Serial Number: 1 (0x1)
        Signature Algorithm: sha256WithRSAEncryption
        Issuer: O=Test Org, CN=Test Org rauc CA Development
        Validity
            Not Before: Jan  1 00:00:00 1970 GMT
            Not After : Dec 31 23:59:59 9999 GMT
        Subject: O=Test Org, CN=Test Org rauc CA Development
        Subject Public Key Info:
            Public Key Algorithm: rsaEncryption
                RSA Public-Key: (2048 bit)
                Modulus:
                    00:ab:00:45:8c:c4:82:2f:58:98:ca:9b:8d:92:36:
                    2d:57:73:32:89:a1:74:d3:aa:35:f4:57:28:1e:09:
                    88:0e:9e:b3:f0:41:51:48:23:1a:69:0a:9b:70:d0:
                    84:45:7c:89:b1:09:20:7b:86:4c:be:f7:1d:61:a2:
                    3a:b0:33:66:c5:cf:f6:7f:75:4d:a1:77:c8:28:93:
                    9a:bd:4c:b8:8c:ad:8e:9c:86:6d:9d:d7:13:28:f0:
                    33:dd:82:da:3f:24:71:39:3a:cc:1b:3d:31:98:35:
                    48:d0:89:28:d7:f4:44:0b:40:00:29:32:d9:81:b6:
                    a3:32:a8:bb:df:33:25:94:c9:f5:aa:ad:6d:c7:af:
                    82:89:b3:31:7a:13:60:91:61:78:33:3a:6e:42:c3:
                    94:13:91:7f:b8:32:ad:89:86:f9:ec:ec:1e:d7:52:
                    b2:19:2c:65:96:86:73:7b:03:45:c2:0c:f3:e5:6f:
                    b1:3d:48:a0:02:fe:af:3d:a5:1b:42:23:4f:fd:c0:
                    31:64:34:04:a2:a2:c0:4e:a0:f1:45:43:36:6c:8b:
                    39:02:1c:18:ed:cc:ed:13:e5:fe:6c:26:5f:de:ec:
                    f1:cf:c4:7e:d2:aa:24:3a:37:46:34:f7:31:f5:21:
                    e1:b4:b5:9c:69:5c:ec:99:d9:dd:7b:f7:f0:8c:32:
                    1c:41
                Exponent: 65537 (0x10001)
        X509v3 extensions:
            X509v3 Subject Key Identifier: 
                5C:6E:96:5C:5C:97:95:D5:FB:55:9F:2F:23:68:D0:1A:3D:DE:76:E8
            X509v3 Authority Key Identifier: 
                keyid:5C:6E:96:5C:5C:97:95:D5:FB:55:9F:2F:23:68:D0:1A:3D:DE:76:E8
                DirName:/O=Test Org/CN=Test Org rauc CA Development
                serial:01

            X509v3 Basic Constraints: 
                CA:TRUE
    Signature Algorithm: sha256WithRSAEncryption
         33:54:fb:0e:63:68:1c:5c:d6:e3:f4:80:51:b6:c7:0a:92:91:
         70:91:4b:ee:9c:56:ec:c8:82:7c:bd:03:ab:95:cf:75:0c:73:
         15:77:7c:33:07:44:d2:62:35:4d:33:77:7e:7f:84:13:04:c3:
         07:d2:d8:58:8a:aa:c0:28:61:e7:b6:01:ea:d4:7b:b2:99:eb:
         63:bf:a9:1f:ee:cc:86:2f:07:60:9b:c7:2a:53:27:c6:ec:cb:
         47:02:6c:51:89:e0:d5:65:21:12:b1:25:c3:02:d0:43:f6:40:
         83:58:d5:9c:ca:91:ef:eb:8a:f7:85:b0:2f:4f:94:c9:53:5b:
         02:57:d6:66:c6:70:4f:bb:a7:d5:16:b0:7b:8c:81:aa:ea:8f:
         72:44:58:4a:de:77:54:8a:fb:d2:3e:3e:db:61:a6:77:37:56:
         2a:65:42:af:d2:e6:f6:53:cf:5c:2d:82:14:bd:1d:8d:2d:eb:
         ad:cc:ea:9f:28:4c:71:ea:15:70:26:b2:d6:7a:35:b9:31:ae:
         f5:50:fe:f4:76:e4:5e:bd:64:7f:59:ea:78:3f:b3:ac:ef:95:
         b7:b6:fd:01:c0:03:a7:01:45:d3:37:85:b2:99:d7:90:ca:95:
         8a:4f:d5:16:6d:bd:b7:6e:eb:f2:ec:54:27:4d:e0:e3:de:26:
         ad:66:ba:89
-----BEGIN CERTIFICATE-----
MIIDhjCCAm6gAwIBAgIBATANBgkqhkiG9w0BAQsFADA6MREwDwYDVQQKDAhUZXN0
IE9yZzElMCMGA1UEAwwcVGVzdCBPcmcgcmF1YyBDQSBEZXZlbG9wbWVudDAgFw03
MDAxMDEwMDAwMDBaGA85OTk5MTIzMTIzNTk1OVowOjERMA8GA1UECgwIVGVzdCBP
cmcxJTAjBgNVBAMMHFRlc3QgT3JnIHJhdWMgQ0EgRGV2ZWxvcG1lbnQwggEiMA0G
CSqGSIb3DQEBAQUAA4IBDwAwggEKAoIBAQCrAEWMxIIvWJjKm42SNi1XczKJoXTT
qjX0VygeCYgOnrPwQVFIIxppCptw0IRFfImxCSB7hky+9x1hojqwM2bFz/Z/dU2h
d8gok5q9TLiMrY6chm2d1xMo8DPdgto/JHE5OswbPTGYNUjQiSjX9EQLQAApMtmB
tqMyqLvfMyWUyfWqrW3Hr4KJszF6E2CRYXgzOm5Cw5QTkX+4Mq2Jhvns7B7XUrIZ
LGWWhnN7A0XCDPPlb7E9SKAC/q89pRtCI0/9wDFkNASiosBOoPFFQzZsizkCHBjt
zO0T5f5sJl/e7PHPxH7SqiQ6N0Y09zH1IeG0tZxpXOyZ2d179/CMMhxBAgMBAAGj
gZQwgZEwHQYDVR0OBBYEFFxullxcl5XV+1WfLyNo0Bo93nboMGIGA1UdIwRbMFmA
FFxullxcl5XV+1WfLyNo0Bo93nbooT6kPDA6MREwDwYDVQQKDAhUZXN0IE9yZzEl
MCMGA1UEAwwcVGVzdCBPcmcgcmF1YyBDQSBEZXZlbG9wbWVudIIBATAMBgNVHRME
BTADAQH/MA0GCSqGSIb3DQEBCwUAA4IBAQAzVPsOY2gcXNbj9IBRtscKkpFwkUvu
nFbsyIJ8vQOrlc91DHMVd3wzB0TSYjVNM3d+f4QTBMMH0thYiqrAKGHntgHq1Huy
metjv6kf7syGLwdgm8cqUyfG7MtHAmxRieDVZSESsSXDAtBD9kCDWNWcypHv64r3
hbAvT5TJU1sCV9ZmxnBPu6fVFrB7jIGq6o9yRFhK3ndUivvSPj7bYaZ3N1YqZUKv
0ub2U89cLYIUvR2NLeutzOqfKExx6hVwJrLWejW5Ma71UP70duRevWR/Wep4P7Os
75W3tv0BwAOnAUXTN4WymdeQypWKT9UWbb23buvy7FQnTeDj3iatZrqJ
-----END CERTIFICATE-----
